target datalayout = "e-m:e-p270:32:32-p271:32:32-p272:64:64-i64:64-i128:128-f80:128-n8:16:32:64-S128"
target triple = "x86_64-pc-linux-gnu"

%struct._connParams = type { ptr, ptr, ptr, ptr, i32, ptr }
%struct._restoreOptions = type { i32, i32, i32, i32, i32, i32, ptr, ptr, i32, i32, i32, i32, i32, i32, i32, i32, i32, i32, ptr, i32, i32, i32, ptr, i32, i32, ptr, i32, ptr, i32, i32, i32, i32, i32, %struct.SimpleStringList, %struct.SimpleStringList, %struct.SimpleStringList, %struct.SimpleStringList, %struct.SimpleStringList, %struct.SimpleStringList, i32, %struct._connParams, i32, i32, %struct.pg_compress_specification, i32, i8, i32, ptr, i32, i32, i32, i8, i8 }
%struct.SimpleStringList = type { ptr, ptr }
%struct.pg_compress_specification = type { i32, i32, i32, i32, i8, ptr }

@.str.233 = private unnamed_addr constant [22 x i8] c"schema \22%s\22 not found\00", align 1
@.str.234 = private unnamed_addr constant [21 x i8] c"table \22%s\22 not found\00", align 1
@.str.235 = private unnamed_addr constant [21 x i8] c"index \22%s\22 not found\00", align 1
@.str.236 = private unnamed_addr constant [24 x i8] c"function \22%s\22 not found\00", align 1
@.str.237 = private unnamed_addr constant [23 x i8] c"trigger \22%s\22 not found\00", align 1

; Function Attrs: nounwind uwtable
define internal void @StrictNamesCheck(ptr noundef %0) #0 {
  %2 = alloca ptr, align 8
  %3 = alloca ptr, align 8
  store ptr %0, ptr %2, align 8
  call void @llvm.lifetime.start.p0(i64 8, ptr %3) #11
  %4 = load ptr, ptr %2, align 8
  %5 = getelementptr inbounds nuw %struct._restoreOptions, ptr %4, i32 0, i32 35
  %6 = getelementptr inbounds nuw %struct.SimpleStringList, ptr %5, i32 0, i32 0
  %7 = load ptr, ptr %6, align 8
  %8 = icmp ne ptr %7, null
  br i1 %8, label %9, label %21

9:                                                ; preds = %1
  %10 = load ptr, ptr %2, align 8
  %11 = getelementptr inbounds nuw %struct._restoreOptions, ptr %10, i32 0, i32 35
  %12 = call ptr @simple_string_list_not_touched(ptr noundef %11)
  store ptr %12, ptr %3, align 8
  %13 = load ptr, ptr %3, align 8
  %14 = icmp ne ptr %13, null
  br i1 %14, label %15, label %20

15:                                               ; preds = %9
  br label %16

16:                                               ; preds = %15
  %17 = load ptr, ptr %3, align 8
  call void (i32, i32, ptr, ...) @pg_log_generic(i32 noundef 4, i32 noundef 0, ptr noundef @.str.233, ptr noundef %17)
  call void @exit_nicely(i32 noundef 1) #12
  unreachable

18:                                               ; No predecessors!
  br label %19

19:                                               ; preds = %18
  br label %20

20:                                               ; preds = %19, %9
  br label %21

21:                                               ; preds = %20, %1
  %22 = load ptr, ptr %2, align 8
  %23 = getelementptr inbounds nuw %struct._restoreOptions, ptr %22, i32 0, i32 38
  %24 = getelementptr inbounds nuw %struct.SimpleStringList, ptr %23, i32 0, i32 0
  %25 = load ptr, ptr %24, align 8
  %26 = icmp ne ptr %25, null
  br i1 %26, label %27, label %39

27:                                               ; preds = %21
  %28 = load ptr, ptr %2, align 8
  %29 = getelementptr inbounds nuw %struct._restoreOptions, ptr %28, i32 0, i32 38
  %30 = call ptr @simple_string_list_not_touched(ptr noundef %29)
  store ptr %30, ptr %3, align 8
  %31 = load ptr, ptr %3, align 8
  %32 = icmp ne ptr %31, null
  br i1 %32, label %33, label %38

33:                                               ; preds = %27
  br label %34

34:                                               ; preds = %33
  %35 = load ptr, ptr %3, align 8
  call void (i32, i32, ptr, ...) @pg_log_generic(i32 noundef 4, i32 noundef 0, ptr noundef @.str.234, ptr noundef %35)
  call void @exit_nicely(i32 noundef 1) #12
  unreachable

36:                                               ; No predecessors!
  br label %37

37:                                               ; preds = %36
  br label %38

38:                                               ; preds = %37, %27
  br label %39

39:                                               ; preds = %38, %21
  %40 = load ptr, ptr %2, align 8
  %41 = getelementptr inbounds nuw %struct._restoreOptions, ptr %40, i32 0, i32 33
  %42 = getelementptr inbounds nuw %struct.SimpleStringList, ptr %41, i32 0, i32 0
  %43 = load ptr, ptr %42, align 8
  %44 = icmp ne ptr %43, null
  br i1 %44, label %45, label %57

45:                                               ; preds = %39
  %46 = load ptr, ptr %2, align 8
  %47 = getelementptr inbounds nuw %struct._restoreOptions, ptr %46, i32 0, i32 33
  %48 = call ptr @simple_string_list_not_touched(ptr noundef %47)
  store ptr %48, ptr %3, align 8
  %49 = load ptr, ptr %3, align 8
  %50 = icmp ne ptr %49, null
  br i1 %50, label %51, label %56

51:                                               ; preds = %45
  br label %52

52:                                               ; preds = %51
  %53 = load ptr, ptr %3, align 8
  call void (i32, i32, ptr, ...) @pg_log_generic(i32 noundef 4, i32 noundef 0, ptr noundef @.str.235, ptr noundef %53)
  call void @exit_nicely(i32 noundef 1) #12
  unreachable

54:                                               ; No predecessors!
  br label %55

55:                                               ; preds = %54
  br label %56

56:                                               ; preds = %55, %45
  br label %57

57:                                               ; preds = %56, %39
  %58 = load ptr, ptr %2, align 8
  %59 = getelementptr inbounds nuw %struct._restoreOptions, ptr %58, i32 0, i32 34
  %60 = getelementptr inbounds nuw %struct.SimpleStringList, ptr %59, i32 0, i32 0
  %61 = load ptr, ptr %60, align 8
  %62 = icmp ne ptr %61, null
  br i1 %62, label %63, label %75

63:                                               ; preds = %57
  %64 = load ptr, ptr %2, align 8
  %65 = getelementptr inbounds nuw %struct._restoreOptions, ptr %64, i32 0, i32 34
  %66 = call ptr @simple_string_list_not_touched(ptr noundef %65)
  store ptr %66, ptr %3, align 8
  %67 = load ptr, ptr %3, align 8
  %68 = icmp ne ptr %67, null
  br i1 %68, label %69, label %74

69:                                               ; preds = %63
  br label %70

70:                                               ; preds = %69
  %71 = load ptr, ptr %3, align 8
  call void (i32, i32, ptr, ...) @pg_log_generic(i32 noundef 4, i32 noundef 0, ptr noundef @.str.236, ptr noundef %71)
  call void @exit_nicely(i32 noundef 1) #12
  unreachable

72:                                               ; No predecessors!
  br label %73

73:                                               ; preds = %72
  br label %74

74:                                               ; preds = %73, %63
  br label %75

75:                                               ; preds = %74, %57
  %76 = load ptr, ptr %2, align 8
  %77 = getelementptr inbounds nuw %struct._restoreOptions, ptr %76, i32 0, i32 37
  %78 = getelementptr inbounds nuw %struct.SimpleStringList, ptr %77, i32 0, i32 0
  %79 = load ptr, ptr %78, align 8
  %80 = icmp ne ptr %79, null
  br i1 %80, label %81, label %93

81:                                               ; preds = %75
  %82 = load ptr, ptr %2, align 8
  %83 = getelementptr inbounds nuw %struct._restoreOptions, ptr %82, i32 0, i32 37
  %84 = call ptr @simple_string_list_not_touched(ptr noundef %83)
  store ptr %84, ptr %3, align 8
  %85 = load ptr, ptr %3, align 8
  %86 = icmp ne ptr %85, null
  br i1 %86, label %87, label %92

87:                                               ; preds = %81
  br label %88

88:                                               ; preds = %87
  %89 = load ptr, ptr %3, align 8
  call void (i32, i32, ptr, ...) @pg_log_generic(i32 noundef 4, i32 noundef 0, ptr noundef @.str.237, ptr noundef %89)
  call void @exit_nicely(i32 noundef 1) #12
  unreachable

90:                                               ; No predecessors!
  br label %91

91:                                               ; preds = %90
  br label %92

92:                                               ; preds = %91, %81
  br label %93

93:                                               ; preds = %92, %75
  call void @llvm.lifetime.end.p0(i64 8, ptr %3) #11
  ret void
}