; Function Attrs: nounwind uwtable
define internal fastcc void @StrictNamesCheck(ptr noundef %0) unnamed_addr #0 {
  %2 = getelementptr inbounds nuw i8, ptr %0, i64 200
  %3 = load ptr, ptr %2, align 8
  %.not = icmp eq ptr %3, null
  br i1 %.not, label %7, label %4

4:                                                ; preds = %1
  %5 = tail call ptr @simple_string_list_not_touched(ptr noundef nonnull %2) #22
  %.not24 = icmp eq ptr %5, null
  br i1 %.not24, label %7, label %6

6:                                                ; preds = %4
  tail call void (i32, i32, ptr, ...) @pg_log_generic(i32 noundef 4, i32 noundef 0, ptr noundef nonnull @.str.233, ptr noundef nonnull %5) #22
  tail call void @exit_nicely(i32 noundef 1) #23
  unreachable

7:                                                ; preds = %4, %1
  %8 = getelementptr inbounds nuw i8, ptr %0, i64 248
  %9 = load ptr, ptr %8, align 8
  %.not25 = icmp eq ptr %9, null
  br i1 %.not25, label %13, label %10

10:                                               ; preds = %7
  %11 = tail call ptr @simple_string_list_not_touched(ptr noundef nonnull %8) #22
  %.not26 = icmp eq ptr %11, null
  br i1 %.not26, label %13, label %12

12:                                               ; preds = %10
  tail call void (i32, i32, ptr, ...) @pg_log_generic(i32 noundef 4, i32 noundef 0, ptr noundef nonnull @.str.234, ptr noundef nonnull %11) #22
  tail call void @exit_nicely(i32 noundef 1) #23
  unreachable

13:                                               ; preds = %10, %7
  %14 = getelementptr inbounds nuw i8, ptr %0, i64 168
  %15 = load ptr, ptr %14, align 8
  %.not27 = icmp eq ptr %15, null
  br i1 %.not27, label %19, label %16

16:                                               ; preds = %13
  %17 = tail call ptr @simple_string_list_not_touched(ptr noundef nonnull %14) #22
  %.not28 = icmp eq ptr %17, null
  br i1 %.not28, label %19, label %18

18:                                               ; preds = %16
  tail call void (i32, i32, ptr, ...) @pg_log_generic(i32 noundef 4, i32 noundef 0, ptr noundef nonnull @.str.235, ptr noundef nonnull %17) #22
  tail call void @exit_nicely(i32 noundef 1) #23
  unreachable

19:                                               ; preds = %16, %13
  %20 = getelementptr inbounds nuw i8, ptr %0, i64 184
  %21 = load ptr, ptr %20, align 8
  %.not29 = icmp eq ptr %21, null
  br i1 %.not29, label %25, label %22

22:                                               ; preds = %19
  %23 = tail call ptr @simple_string_list_not_touched(ptr noundef nonnull %20) #22
  %.not30 = icmp eq ptr %23, null
  br i1 %.not30, label %25, label %24

24:                                               ; preds = %22
  tail call void (i32, i32, ptr, ...) @pg_log_generic(i32 noundef 4, i32 noundef 0, ptr noundef nonnull @.str.236, ptr noundef nonnull %23) #22
  tail call void @exit_nicely(i32 noundef 1) #23
  unreachable

25:                                               ; preds = %22, %19
  %26 = getelementptr inbounds nuw i8, ptr %0, i64 232
  %27 = load ptr, ptr %26, align 8
  %.not31 = icmp eq ptr %27, null
  br i1 %.not31, label %31, label %28

28:                                               ; preds = %25
  %29 = tail call ptr @simple_string_list_not_touched(ptr noundef nonnull %26) #22
  %.not32 = icmp eq ptr %29, null
  br i1 %.not32, label %31, label %30

30:                                               ; preds = %28
  tail call void (i32, i32, ptr, ...) @pg_log_generic(i32 noundef 4, i32 noundef 0, ptr noundef nonnull @.str.237, ptr noundef nonnull %29) #22
  tail call void @exit_nicely(i32 noundef 1) #23
  unreachable

31:                                               ; preds = %28, %25
  ret void
}